target datalayout = "e-m:e-p270:32:32-p271:32:32-p272:64:64-i64:64-i128:128-f80:128-n8:16:32:64-S128"
target triple = "x86_64-pc-linux-gnu"

%"class.std::__cxx11::basic_string" = type { %"struct.std::__cxx11::basic_string<char>::_Alloc_hider", i64, %union.anon }
%"struct.std::__cxx11::basic_string<char>::_Alloc_hider" = type { ptr }
%union.anon = type { i64, [8 x i8] }
%"class.absl::AlphaNum" = type { %"class.std::basic_string_view", [32 x i8] }
%"class.std::basic_string_view" = type { i64, ptr }

; Function Attrs: mustprogress nounwind uwtable
define linkonce_odr dso_local noundef ptr @_ZNKSt17basic_string_viewIcSt11char_traitsIcEE4dataEv(ptr noundef nonnull align 8 dereferenceable(16) %0) #1 comdat align 2 {
  %2 = alloca ptr, align 8
  store ptr %0, ptr %2, align 8, !tbaa !30
  %3 = load ptr, ptr %2, align 8
  %4 = getelementptr inbounds nuw %"class.std::basic_string_view", ptr %3, i32 0, i32 1
  %5 = load ptr, ptr %4, align 8, !tbaa !37
  ret ptr %5
}

; Function Attrs: mustprogress uwtable
define available_externally noundef nonnull align 8 dereferenceable(32) ptr @_ZNSt7__cxx1112basic_stringIcSt11char_traitsIcESaIcEE6appendEmc(ptr noundef nonnull align 8 dereferenceable(32) %0, i64 noundef %1, i8 noundef signext %2) #0 align 2 {
  %4 = alloca ptr, align 8
  %5 = alloca i64, align 8
  %6 = alloca i8, align 1
  store ptr %0, ptr %4, align 8, !tbaa !17
  store i64 %1, ptr %5, align 8, !tbaa !9
  store i8 %2, ptr %6, align 1, !tbaa !42
  %7 = load ptr, ptr %4, align 8
  %8 = call noundef i64 @_ZNKSt7__cxx1112basic_stringIcSt11char_traitsIcESaIcEE4sizeEv(ptr noundef nonnull align 8 dereferenceable(32) %7) #13
  %9 = load i64, ptr %5, align 8, !tbaa !9
  %10 = load i8, ptr %6, align 1, !tbaa !42
  %11 = call noundef nonnull align 8 dereferenceable(32) ptr @_ZNSt7__cxx1112basic_stringIcSt11char_traitsIcESaIcEE14_M_replace_auxEmmmc(ptr noundef nonnull align 8 dereferenceable(32) %7, i64 noundef %8, i64 noundef 0, i64 noundef %9, i8 noundef signext %10)
  ret ptr %11
}

; Function Attrs: mustprogress nounwind uwtable
define linkonce_odr dso_local noundef ptr @_ZNK4absl8AlphaNum4dataEv(ptr noundef nonnull align 8 dereferenceable(48) %0) #1 comdat align 2 {
  %2 = alloca ptr, align 8
  store ptr %0, ptr %2, align 8, !tbaa !4
  %3 = load ptr, ptr %2, align 8
  %4 = getelementptr inbounds nuw %"class.absl::AlphaNum", ptr %3, i32 0, i32 0
  %5 = call noundef ptr @_ZNKSt17basic_string_viewIcSt11char_traitsIcEE4dataEv(ptr noundef nonnull align 8 dereferenceable(16) %4) #13
  ret ptr %5
}

; Function Attrs: mustprogress nounwind uwtable
define available_externally noundef ptr @_ZNKSt7__cxx1112basic_stringIcSt11char_traitsIcESaIcEE7_M_dataEv(ptr noundef nonnull align 8 dereferenceable(32) %0) #1 align 2 {
  %2 = alloca ptr, align 8
  store ptr %0, ptr %2, align 8, !tbaa !17
  %3 = load ptr, ptr %2, align 8
  %4 = getelementptr inbounds nuw %"class.std::__cxx11::basic_string", ptr %3, i32 0, i32 0
  %5 = getelementptr inbounds nuw %"struct.std::__cxx11::basic_string<char>::_Alloc_hider", ptr %4, i32 0, i32 0
  %6 = load ptr, ptr %5, align 8, !tbaa !45
  ret ptr %6
}

; Function Attrs: mustprogress uwtable
define linkonce_odr dso_local void @_ZN4absl16strings_internal25AppendUninitializedTraitsINSt7__cxx1112basic_stringIcSt11char_traitsIcESaIcEEEvE6AppendEPS7_m(ptr noundef %0, i64 noundef %1) #0 comdat align 2 {
  %3 = alloca ptr, align 8
  %4 = alloca i64, align 8
  store ptr %0, ptr %3, align 8, !tbaa !17
  store i64 %1, ptr %4, align 8, !tbaa !9
  %5 = load ptr, ptr %3, align 8, !tbaa !17
  %6 = load i64, ptr %4, align 8, !tbaa !9
  %7 = call noundef nonnull align 8 dereferenceable(32) ptr @_ZNSt7__cxx1112basic_stringIcSt11char_traitsIcESaIcEE6appendEmc(ptr noundef nonnull align 8 dereferenceable(32) %5, i64 noundef %6, i8 noundef signext 0)
  ret void
}

; Function Attrs: mustprogress nounwind uwtable
define linkonce_odr dso_local noundef i64 @_ZNKSt17basic_string_viewIcSt11char_traitsIcEE4sizeEv(ptr noundef nonnull align 8 dereferenceable(16) %0) #1 comdat align 2 {
  %2 = alloca ptr, align 8
  store ptr %0, ptr %2, align 8, !tbaa !30
  %3 = load ptr, ptr %2, align 8
  %4 = getelementptr inbounds nuw %"class.std::basic_string_view", ptr %3, i32 0, i32 0
  %5 = load i64, ptr %4, align 8, !tbaa !35
  ret i64 %5
}

; Function Attrs: inlinehint mustprogress uwtable
define internal noundef ptr @_ZN4absl12_GLOBAL__N_16AppendEPcRKNS_8AlphaNumE(ptr noundef %0, ptr noundef nonnull align 8 dereferenceable(48) %1) #4 {
  %3 = alloca ptr, align 8
  %4 = alloca ptr, align 8
  %5 = alloca ptr, align 8
  store ptr %0, ptr %3, align 8, !tbaa !11
  store ptr %1, ptr %4, align 8, !tbaa !4
  call void @llvm.lifetime.start.p0(i64 8, ptr %5) #13
  %6 = load ptr, ptr %3, align 8, !tbaa !11
  %7 = load ptr, ptr %4, align 8, !tbaa !4
  %8 = call noundef i64 @_ZNK4absl8AlphaNum4sizeEv(ptr noundef nonnull align 8 dereferenceable(48) %7)
  %9 = getelementptr inbounds nuw i8, ptr %6, i64 %8
  store ptr %9, ptr %5, align 8, !tbaa !11
  %10 = load ptr, ptr %4, align 8, !tbaa !4
  %11 = call noundef i64 @_ZNK4absl8AlphaNum4sizeEv(ptr noundef nonnull align 8 dereferenceable(48) %10)
  %12 = icmp ne i64 %11, 0
  br i1 %12, label %13, label %19

13:                                               ; preds = %2
  %14 = load ptr, ptr %3, align 8, !tbaa !11
  %15 = load ptr, ptr %4, align 8, !tbaa !4
  %16 = call noundef ptr @_ZNK4absl8AlphaNum4dataEv(ptr noundef nonnull align 8 dereferenceable(48) %15)
  %17 = load ptr, ptr %4, align 8, !tbaa !4
  %18 = call noundef i64 @_ZNK4absl8AlphaNum4sizeEv(ptr noundef nonnull align 8 dereferenceable(48) %17)
  call void @llvm.memcpy.p0.p0.i64(ptr align 1 %14, ptr align 1 %16, i64 %18, i1 false)
  br label %19

19:                                               ; preds = %13, %2
  %20 = load ptr, ptr %5, align 8, !tbaa !11
  call void @llvm.lifetime.end.p0(i64 8, ptr %5) #13
  ret ptr %20
}

; Function Attrs: mustprogress nounwind uwtable
define available_externally noundef nonnull align 1 dereferenceable(1) ptr @_ZNSt7__cxx1112basic_stringIcSt11char_traitsIcESaIcEEixEm(ptr noundef nonnull align 8 dereferenceable(32) %0, i64 noundef %1) #1 align 2 {
  %3 = alloca ptr, align 8
  %4 = alloca i64, align 8
  store ptr %0, ptr %3, align 8, !tbaa !17
  store i64 %1, ptr %4, align 8, !tbaa !9
  %5 = load ptr, ptr %3, align 8
  br label %6

6:                                                ; preds = %2
  br label %7

7:                                                ; preds = %6
  %8 = call noundef ptr @_ZNKSt7__cxx1112basic_stringIcSt11char_traitsIcESaIcEE7_M_dataEv(ptr noundef nonnull align 8 dereferenceable(32) %5)
  %9 = load i64, ptr %4, align 8, !tbaa !9
  %10 = getelementptr inbounds nuw i8, ptr %8, i64 %9
  ret ptr %10
}

; Function Attrs: inlinehint mustprogress uwtable
define internal void @_ZN4absl12_GLOBAL__N_137STLStringAppendUninitializedAmortizedEPNSt7__cxx1112basic_stringIcSt11char_traitsIcESaIcEEEm(ptr noundef %0, i64 noundef %1) #4 {
  %3 = alloca ptr, align 8
  %4 = alloca i64, align 8
  store ptr %0, ptr %3, align 8, !tbaa !17
  store i64 %1, ptr %4, align 8, !tbaa !9
  %5 = load ptr, ptr %3, align 8, !tbaa !17
  %6 = load i64, ptr %4, align 8, !tbaa !9
  call void @_ZN4absl16strings_internal25AppendUninitializedTraitsINSt7__cxx1112basic_stringIcSt11char_traitsIcESaIcEEEvE6AppendEPS7_m(ptr noundef %5, i64 noundef %6)
  ret void
}

; Function Attrs: mustprogress nounwind uwtable
define linkonce_odr dso_local noundef i64 @_ZNK4absl8AlphaNum4sizeEv(ptr noundef nonnull align 8 dereferenceable(48) %0) #1 comdat align 2 {
  %2 = alloca ptr, align 8
  store ptr %0, ptr %2, align 8, !tbaa !4
  %3 = load ptr, ptr %2, align 8
  %4 = getelementptr inbounds nuw %"class.absl::AlphaNum", ptr %3, i32 0, i32 0
  %5 = call noundef i64 @_ZNKSt17basic_string_viewIcSt11char_traitsIcEE4sizeEv(ptr noundef nonnull align 8 dereferenceable(16) %4) #13
  ret i64 %5
}

; Function Attrs: mustprogress nounwind uwtable
define available_externally noundef i64 @_ZNKSt7__cxx1112basic_stringIcSt11char_traitsIcESaIcEE4sizeEv(ptr noundef nonnull align 8 dereferenceable(32) %0) #1 align 2 {
  %2 = alloca ptr, align 8
  store ptr %0, ptr %2, align 8, !tbaa !17
  %3 = load ptr, ptr %2, align 8
  %4 = getelementptr inbounds nuw %"class.std::__cxx11::basic_string", ptr %3, i32 0, i32 1
  %5 = load i64, ptr %4, align 8, !tbaa !38
  ret i64 %5
}

; Function Attrs: mustprogress uwtable
define dso_local void @_ZN4absl9StrAppendEPNSt7__cxx1112basic_stringIcSt11char_traitsIcESaIcEEERKNS_8AlphaNumE(ptr noundef %0, ptr noundef nonnull align 8 dereferenceable(48) %1) #0 {
  %3 = alloca ptr, align 8
  %4 = alloca ptr, align 8
  %5 = alloca i64, align 8
  %6 = alloca ptr, align 8
  %7 = alloca ptr, align 8
  store ptr %0, ptr %3, align 8, !tbaa !17
  store ptr %1, ptr %4, align 8, !tbaa !4
  call void @llvm.lifetime.start.p0(i64 8, ptr %5) #13
  %8 = load ptr, ptr %3, align 8, !tbaa !17
  %9 = call noundef i64 @_ZNKSt7__cxx1112basic_stringIcSt11char_traitsIcESaIcEE4sizeEv(ptr noundef nonnull align 8 dereferenceable(32) %8) #13
  store i64 %9, ptr %5, align 8, !tbaa !9
  %10 = load ptr, ptr %3, align 8, !tbaa !17
  %11 = load ptr, ptr %4, align 8, !tbaa !4
  %12 = call noundef i64 @_ZNK4absl8AlphaNum4sizeEv(ptr noundef nonnull align 8 dereferenceable(48) %11)
  call void @_ZN4absl12_GLOBAL__N_137STLStringAppendUninitializedAmortizedEPNSt7__cxx1112basic_stringIcSt11char_traitsIcESaIcEEEm(ptr noundef %10, i64 noundef %12)
  call void @llvm.lifetime.start.p0(i64 8, ptr %6) #13
  %13 = load ptr, ptr %3, align 8, !tbaa !17
  %14 = call noundef nonnull align 1 dereferenceable(1) ptr @_ZNSt7__cxx1112basic_stringIcSt11char_traitsIcESaIcEEixEm(ptr noundef nonnull align 8 dereferenceable(32) %13, i64 noundef 0)
  store ptr %14, ptr %6, align 8, !tbaa !11
  call void @llvm.lifetime.start.p0(i64 8, ptr %7) #13
  %15 = load ptr, ptr %6, align 8, !tbaa !11
  %16 = load i64, ptr %5, align 8, !tbaa !9
  %17 = getelementptr inbounds nuw i8, ptr %15, i64 %16
  store ptr %17, ptr %7, align 8, !tbaa !11
  %18 = load ptr, ptr %7, align 8, !tbaa !11
  %19 = load ptr, ptr %4, align 8, !tbaa !4
  %20 = call noundef ptr @_ZN4absl12_GLOBAL__N_16AppendEPcRKNS_8AlphaNumE(ptr noundef %18, ptr noundef nonnull align 8 dereferenceable(48) %19)
  store ptr %20, ptr %7, align 8, !tbaa !11
  call void @llvm.lifetime.end.p0(i64 8, ptr %7) #13
  call void @llvm.lifetime.end.p0(i64 8, ptr %6) #13
  call void @llvm.lifetime.end.p0(i64 8, ptr %5) #13
  ret void
}