; Function Attrs: mustprogress uwtable
define dso_local void @_ZN4absl9StrAppendEPNSt7__cxx1112basic_stringIcSt11char_traitsIcESaIcEEERKNS_8AlphaNumE(ptr noundef nonnull %0, ptr noundef nonnull readonly align 8 captures(none) dereferenceable(48) %1) local_unnamed_addr #0 {
  %3 = getelementptr inbounds nuw i8, ptr %0, i64 8
  %4 = load i64, ptr %3, align 8, !tbaa !10
  %5 = load i64, ptr %1, align 8, !tbaa !14
  %6 = tail call noundef nonnull align 8 dereferenceable(32) ptr @_ZNSt7__cxx1112basic_stringIcSt11char_traitsIcESaIcEE14_M_replace_auxEmmmc(ptr noundef nonnull align 8 dereferenceable(32) %0, i64 noundef %4, i64 noundef 0, i64 noundef %5, i8 noundef signext 0)
  %.val = load i64, ptr %1, align 8, !tbaa !14
  %.not.i = icmp eq i64 %.val, 0
  br i1 %.not.i, label %_ZN4absl12_GLOBAL__N_16AppendEPcRKNS_8AlphaNumE.exit, label %7

7:                                                ; preds = %2
  %8 = getelementptr inbounds nuw i8, ptr %1, i64 8
  %.val7 = load ptr, ptr %8, align 8
  %9 = load ptr, ptr %0, align 8, !tbaa !16
  %10 = getelementptr inbounds nuw i8, ptr %9, i64 %4
  tail call void @llvm.memcpy.p0.p0.i64(ptr nonnull align 1 %10, ptr readonly align 1 %.val7, i64 %.val, i1 false)
  br label %_ZN4absl12_GLOBAL__N_16AppendEPcRKNS_8AlphaNumE.exit

_ZN4absl12_GLOBAL__N_16AppendEPcRKNS_8AlphaNumE.exit: ; preds = %2, %7
  ret void
}